(lp1
(dp2
S'modelname'
p3
S'Intel(R) Core(TM) i5-3210M CPU @ 2.50GHz'
p4
sS'cpuidlevel'
p5
S'13'
p6
sS'bogomips'
p7
S'4988.99'
p8
sS'apicid'
p9
S'0'
sS'fpu_exception'
p10
S'yes'
p11
sS'stepping'
p12
S'9'
sS'cache_alignment'
p13
S'64'
p14
sS'microcode'
p15
S'0x12'
p16
sS'physicalid'
p17
S'0'
sS'fpu'
p18
S'yes'
p19
sS'siblings'
p20
S'4'
sS'cpuMHz'
p21
S'1200.000'
p22
sS'addresssizes'
p23
S'36 bits physical, 48 bits virtual'
p24
sS'cpufamily'
p25
S'6'
sS'cpucores'
p26
S'2'
sS'vendor_id'
p27
S'GenuineIntel'
p28
sS'coreid'
p29
S'0'
sS'powermanagement'
p30
S''
sS'initialapicid'
p31
S'0'
sS'wp'
p32
S'yes'
p33
sS'cachesize'
p34
S'3072 KB'
p35
sS'clflushsize'
p36
S'64'
p37
sS'toolindex'
p38
S'0'
sS'flags'
p39
S'fpu vme de pse tsc msr pae mce cx8 apic sep mtrr pge mca cmov pat pse36 clflush dts acpi mmx fxsr sse sse2 ss ht tm pbe syscall nx rdtscp lm constant_tsc arch_perfmon pebs bts rep_good nopl xtopology nonstop_tsc aperfmperf eagerfpu pni pclmulqdq dtes64 monitor ds_cpl vmx est tm2 ssse3 cx16 xtpr pdcm pcid sse4_1 sse4_2 x2apic popcnt tsc_deadline_timer aes xsave avx f16c rdrand lahf_lm ida arat epb xsaveopt pln pts dtherm tpr_shadow vnmi flexpriority ept vpid fsgsbase smep erms'
p40
sS'model'
p41
S'58'
p42
sS'processor'
p43
S'0'
sa(dp44
S'modelname'
p45
S'Intel(R) Core(TM) i5-3210M CPU @ 2.50GHz'
p46
sS'cpuidlevel'
p47
S'13'
p48
sS'bogomips'
p49
S'4988.99'
p50
sS'apicid'
p51
S'1'
sS'fpu_exception'
p52
S'yes'
p53
sS'stepping'
p54
S'9'
sS'cache_alignment'
p55
S'64'
p56
sS'microcode'
p57
S'0x12'
p58
sS'physicalid'
p59
S'0'
sS'fpu'
p60
S'yes'
p61
sS'siblings'
p62
S'4'
sS'cpuMHz'
p63
S'2501.000'
p64
sS'addresssizes'
p65
S'36 bits physical, 48 bits virtual'
p66
sS'cpufamily'
p67
S'6'
sS'cpucores'
p68
S'2'
sS'vendor_id'
p69
S'GenuineIntel'
p70
sS'coreid'
p71
S'0'
sS'powermanagement'
p72
S''
sS'initialapicid'
p73
S'1'
sS'wp'
p74
S'yes'
p75
sS'cachesize'
p76
S'3072 KB'
p77
sS'clflushsize'
p78
S'64'
p79
sg38
S'1'
sS'flags'
p80
S'fpu vme de pse tsc msr pae mce cx8 apic sep mtrr pge mca cmov pat pse36 clflush dts acpi mmx fxsr sse sse2 ss ht tm pbe syscall nx rdtscp lm constant_tsc arch_perfmon pebs bts rep_good nopl xtopology nonstop_tsc aperfmperf eagerfpu pni pclmulqdq dtes64 monitor ds_cpl vmx est tm2 ssse3 cx16 xtpr pdcm pcid sse4_1 sse4_2 x2apic popcnt tsc_deadline_timer aes xsave avx f16c rdrand lahf_lm ida arat epb xsaveopt pln pts dtherm tpr_shadow vnmi flexpriority ept vpid fsgsbase smep erms'
p81
sS'model'
p82
S'58'
p83
sS'processor'
p84
S'1'
sa(dp85
S'modelname'
p86
S'Intel(R) Core(TM) i5-3210M CPU @ 2.50GHz'
p87
sS'cpuidlevel'
p88
S'13'
p89
sS'bogomips'
p90
S'4988.99'
p91
sS'apicid'
p92
S'2'
sS'fpu_exception'
p93
S'yes'
p94
sS'stepping'
p95
S'9'
sS'cache_alignment'
p96
S'64'
p97
sS'microcode'
p98
S'0x12'
p99
sS'physicalid'
p100
S'0'
sS'fpu'
p101
S'yes'
p102
sS'siblings'
p103
S'4'
sS'cpuMHz'
p104
S'1200.000'
p105
sS'addresssizes'
p106
S'36 bits physical, 48 bits virtual'
p107
sS'cpufamily'
p108
S'6'
sS'cpucores'
p109
S'2'
sS'vendor_id'
p110
S'GenuineIntel'
p111
sS'coreid'
p112
S'1'
sS'powermanagement'
p113
S''
sS'initialapicid'
p114
S'2'
sS'wp'
p115
S'yes'
p116
sS'cachesize'
p117
S'3072 KB'
p118
sS'clflushsize'
p119
S'64'
p120
sg38
S'2'
sS'flags'
p121
S'fpu vme de pse tsc msr pae mce cx8 apic sep mtrr pge mca cmov pat pse36 clflush dts acpi mmx fxsr sse sse2 ss ht tm pbe syscall nx rdtscp lm constant_tsc arch_perfmon pebs bts rep_good nopl xtopology nonstop_tsc aperfmperf eagerfpu pni pclmulqdq dtes64 monitor ds_cpl vmx est tm2 ssse3 cx16 xtpr pdcm pcid sse4_1 sse4_2 x2apic popcnt tsc_deadline_timer aes xsave avx f16c rdrand lahf_lm ida arat epb xsaveopt pln pts dtherm tpr_shadow vnmi flexpriority ept vpid fsgsbase smep erms'
p122
sS'model'
p123
S'58'
p124
sS'processor'
p125
S'2'
sa(dp126
S'modelname'
p127
S'Intel(R) Core(TM) i5-3210M CPU @ 2.50GHz'
p128
sS'cpuidlevel'
p129
S'13'
p130
sS'bogomips'
p131
S'4988.99'
p132
sS'apicid'
p133
S'3'
sS'fpu_exception'
p134
S'yes'
p135
sS'stepping'
p136
S'9'
sS'cache_alignment'
p137
S'64'
p138
sS'microcode'
p139
S'0x12'
p140
sS'physicalid'
p141
S'0'
sS'fpu'
p142
S'yes'
p143
sS'siblings'
p144
S'4'
sS'cpuMHz'
p145
S'1200.000'
p146
sS'addresssizes'
p147
S'36 bits physical, 48 bits virtual'
p148
sS'cpufamily'
p149
S'6'
sS'cpucores'
p150
S'2'
sS'vendor_id'
p151
S'GenuineIntel'
p152
sS'coreid'
p153
S'1'
sS'powermanagement'
p154
S''
sS'initialapicid'
p155
S'3'
sS'wp'
p156
S'yes'
p157
sS'cachesize'
p158
S'3072 KB'
p159
sS'clflushsize'
p160
S'64'
p161
sg38
S'3'
sS'flags'
p162
S'fpu vme de pse tsc msr pae mce cx8 apic sep mtrr pge mca cmov pat pse36 clflush dts acpi mmx fxsr sse sse2 ss ht tm pbe syscall nx rdtscp lm constant_tsc arch_perfmon pebs bts rep_good nopl xtopology nonstop_tsc aperfmperf eagerfpu pni pclmulqdq dtes64 monitor ds_cpl vmx est tm2 ssse3 cx16 xtpr pdcm pcid sse4_1 sse4_2 x2apic popcnt tsc_deadline_timer aes xsave avx f16c rdrand lahf_lm ida arat epb xsaveopt pln pts dtherm tpr_shadow vnmi flexpriority ept vpid fsgsbase smep erms'
p163
sS'model'
p164
S'58'
p165
sS'processor'
p166
S'3'
sa(dp167
a.