(lp1
(dp2
S'iorequest_count'
p3
S'83629'
p4
sS'major'
p5
S'8'
sS'targetport'
p6
S''
sS'state'
p7
S'running'
p8
sS'srcport'
p9
S'ata1'
p10
sS'firmware'
p11
S'2AR1'
p12
sS'hwpath'
p13
S'0:0:0:0'
p14
sS'scsi_level'
p15
S'6'
sS'ioerror_count'
p16
S'12'
p17
sS'queue_depth'
p18
S'31'
p19
sS'iodone_count'
p20
S'82582'
p21
sS'toolindex'
p22
g14
sS'timeout'
p23
S'30'
p24
sS'device'
p25
S'sda'
p26
sS'vendor'
p27
NsS'model'
p28
S'ST1000LM024_HN-M101MBB'
p29
sS'lunid'
p30
S''
sS'rportstate'
p31
S''
sS'id'
p32
S'ST1000LM024_HN-M101MBB_S2U5J9CC505935'
p33
sS'minor'
p34
S'0'
sS'size'
p35
S'1000205'
p36
sa(dp37
g3
S'744'
p38
sg5
S'8'
sg6
S''
sg7
S'running'
p39
sg9
S''
sg11
S'1.00'
p40
sg13
S'6:0:0:0'
p41
sg15
S'3'
sg16
S'743'
p42
sg18
S'1'
sg20
S'744'
p43
sg22
g41
sg23
S'30'
p44
sg25
S'sdb'
p45
sg27
S'Generic'
p46
sg28
S'USB2.0-CRW'
p47
sg30
S''
sg31
S''
sg32
S'Generic_USB2.0-CRW_20100201396000000'
p48
sg34
S'16'
p49
sg35
S'0'
sa.