(lp1
(dp2
S'iorequest_count'
p3
S'639'
p4
sS'major'
p5
S'8'
sS'targetport'
p6
S''
sS'rportstate'
p7
S''
sS'srcport'
p8
Vplatform
p9
sS'hwpath'
p10
V5:0:0:0
p11
sS'firmware'
p12
S'0123'
p13
sS'iodone_count'
p14
S'639'
p15
sS'ioerror_count'
p16
S'1'
sS'state'
p17
S'running'
p18
sS'toolindex'
p19
g11
sS'size'
p20
S'5369'
p21
sS'timeout'
p22
S'30'
p23
sS'device'
p24
Vsdd
p25
sS'vendor'
p26
VFreeBSD
p27
sS'model'
p28
ViSCSI Disk
p29
sS'lunid'
p30
S''
sS'queue_depth'
p31
S'32'
p32
sS'id'
p33
S'33000000090584fc4'
p34
sS'minor'
p35
S'48'
p36
sS'scsi_level'
p37
S'6'
sa(dp38
g3
S'640'
p39
sg5
S'8'
sg6
S''
sg7
S''
sg8
Vplatform
p40
sg10
V6:0:0:0
p41
sg12
S'0123'
p42
sg14
S'640'
p43
sg16
S'1'
sg17
S'running'
p44
sg19
g41
sg20
S'5369'
p45
sg22
S'30'
p46
sg24
Vsde
p47
sg26
VFreeBSD
p48
sg28
ViSCSI Disk
p49
sg30
S''
sg31
S'32'
p50
sg33
S'33000000022ad78b3'
p51
sg35
S'64'
p52
sg37
S'6'
sa(dp53
g3
S'640'
p54
sg5
S'8'
sg6
S''
sg7
S''
sg8
Vplatform
p55
sg10
V7:0:0:0
p56
sg12
S'0123'
p57
sg14
S'640'
p58
sg16
S'1'
sg17
S'running'
p59
sg19
g56
sg20
S'5369'
p60
sg22
S'30'
p61
sg24
Vsdf
p62
sg26
VFreeBSD
p63
sg28
ViSCSI Disk
p64
sg30
S''
sg31
S'32'
p65
sg33
S'3300000007f6824dd'
p66
sg35
S'80'
p67
sg37
S'6'
sa(dp68
g3
S'639'
p69
sg5
S'8'
sg6
S''
sg7
S''
sg8
Vplatform
p70
sg10
V8:0:0:0
p71
sg12
S'0123'
p72
sg14
S'639'
p73
sg16
S'1'
sg17
S'running'
p74
sg19
g71
sg20
S'5369'
p75
sg22
S'30'
p76
sg24
Vsdg
p77
sg26
VFreeBSD
p78
sg28
ViSCSI Disk
p79
sg30
S''
sg31
S'32'
p80
sg33
S'330000000cd9d13aa'
p81
sg35
S'96'
p82
sg37
S'6'
sa(dp83
g3
S'46445'
p84
sg5
S'8'
sg6
S''
sg7
S''
sg8
V0000:00:0d.0
p85
sg10
V2:0:0:0
p86
sg12
S'1.0'
p87
sg14
S'45811'
p88
sg16
S'4'
sg17
S'running'
p89
sg19
g86
sg20
S'8590'
p90
sg22
S'30'
p91
sg24
Vsda
p92
sg26
VATA
p93
sg28
VVBOX HARDDISK
p94
sg30
S''
sg31
S'31'
p95
sg33
S'VBOX_HARDDISK_VB93936cc0-4bd0ccc2'
p96
sg35
S'0'
sg37
S'6'
sa(dp97
g3
S'47444'
p98
sg5
S'8'
sg6
S''
sg7
S''
sg8
V0000:00:0d.0
p99
sg10
V3:0:0:0
p100
sg12
S'1.0'
p101
sg14
S'46980'
p102
sg16
S'4'
sg17
S'running'
p103
sg19
g100
sg20
S'8590'
p104
sg22
S'30'
p105
sg24
Vsdb
p106
sg26
VATA
p107
sg28
VVBOX HARDDISK
p108
sg30
S''
sg31
S'31'
p109
sg33
S'VBOX_HARDDISK_VB25b40d21-8bdbff37'
p110
sg35
S'16'
p111
sg37
S'6'
sa(dp112
g3
S'560'
p113
sg5
S'8'
sg6
S''
sg7
S''
sg8
Vplatform
p114
sg10
V4:0:0:0
p115
sg12
S'0123'
p116
sg14
S'560'
p117
sg16
S'1'
sg17
S'running'
p118
sg19
g115
sg20
S'5369'
p119
sg22
S'30'
p120
sg24
Vsdc
p121
sg26
VFreeBSD
p122
sg28
ViSCSI Disk
p123
sg30
S''
sg31
S'32'
p124
sg33
S'330000000a4e4841e'
p125
sg35
S'32'
p126
sg37
S'6'
sa.