(lp1
(dp2
S'FormFactor'
p3
S'SODIMM'
p4
sS'ArrayHandle'
p5
S'0x0034'
p6
sS'Set'
p7
S'None'
p8
sS'handle'
p9
S'0x0036'
p10
sS'AssetTag'
p11
S'9876543210'
p12
sS'ErrorInformationHandle'
p13
S'No Error'
p14
sS'SerialNumber'
p15
S'6269255A'
p16
sS'Speed'
p17
S'1600 MHz (0.6ns)'
p18
sS'Locator'
p19
S'ChannelB-DIMM0'
p20
sS'toolindex'
p21
g10
sS'DataWidth'
p22
S'64 bit'
p23
sS'TypeDetail'
p24
S"[None, None, None, None, None, None, 'Synchronous', None, None, None, None, None]"
p25
sS'TotalWidth'
p26
S'64 bit'
p27
sS'PartNumber'
p28
S'M471B5273DH0-CK0'
p29
sS'Manufacturer'
p30
S'Samsung'
p31
sS'Type'
p32
S''
sS'BankLocator'
p33
S'BANK 2'
p34
sS'Size'
p35
S'4096 MB'
p36
sa(dp37
S'FormFactor'
p38
S'SODIMM'
p39
sS'ArrayHandle'
p40
S'0x0034'
p41
sg7
S'None'
p42
sg9
S'0x0035'
p43
sg11
S'9876543210'
p44
sS'ErrorInformationHandle'
p45
S'No Error'
p46
sS'SerialNumber'
p47
S'62692509'
p48
sg17
S'1600 MHz (0.6ns)'
p49
sg19
S'ChannelA-DIMM0'
p50
sg21
g43
sS'DataWidth'
p51
S'64 bit'
p52
sS'TypeDetail'
p53
S"[None, None, None, None, None, None, 'Synchronous', None, None, None, None, None]"
p54
sS'TotalWidth'
p55
S'64 bit'
p56
sS'PartNumber'
p57
S'M471B5273DH0-CK0'
p58
sg30
S'Samsung'
p59
sg32
S''
sS'BankLocator'
p60
S'BANK 0'
p61
sg35
S'4096 MB'
p62
sa.