(lp1
(dp2
S'vendor'
p3
S'Intel Corporation'
p4
sS'subdevice'
p5
S''
sS'irq'
p6
S'0'
sS'sysfspath'
p7
S'/sys/devices/pci0000:00/0000:00:00.0'
p8
sS'driver'
p9
NsS'subclass'
p10
S'Host bridge'
p11
sS'localcpus'
p12
S'00000000,00000000,00000000,00000000,00000000,00000000,00000000,0000000f'
p13
sS'toolindex'
p14
S'0000:00:00.0'
p15
sS'numanode'
p16
S'-1'
p17
sS'device'
p18
S'3rd Gen Core processor DRAM Controller'
p19
sS'localcpulist'
p20
S'0-3'
p21
sS'class'
p22
S'Bridge'
p23
sS'addr'
p24
g15
sa(dp25
g3
g4
sg5
S''
sg6
S'40'
p26
sg7
S'/sys/devices/pci0000:00/0000:00:01.0'
p27
sg9
S'pcieport'
p28
sg10
S'PCI bridge'
p29
sg12
S'00000000,00000000,00000000,00000000,00000000,00000000,00000000,0000000f'
p30
sg14
S'0000:00:01.0'
p31
sg16
S'-1'
p32
sg18
S'Xeon E3-1200 v2/3rd Gen Core processor PCI Express Root Port'
p33
sg20
S'0-3'
p34
sg22
g23
sg24
g31
sa(dp35
g3
S'NVIDIA Corporation'
p36
sg5
S'GeForce 710M'
p37
sg6
S'16'
p38
sg7
S'/sys/devices/pci0000:00/0000:00:01.0/0000:01:00.0'
p39
sg9
Nsg10
S'VGA compatible controller'
p40
sg12
S'00000000,00000000,00000000,00000000,00000000,00000000,00000000,0000000f'
p41
sg14
S'0000:01:00.0'
p42
sg16
S'-1'
p43
sg18
S'GF108M [GeForce GT 630M]'
p44
sg20
S'0-3'
p45
sg22
S'Display controller'
p46
sg24
g42
sa(dp47
g3
g4
sg5
S''
sg6
S'43'
p48
sg7
S'/sys/devices/pci0000:00/0000:00:02.0'
p49
sg9
S'i915'
p50
sg10
g40
sg12
S'00000000,00000000,00000000,00000000,00000000,00000000,00000000,0000000f'
p51
sg14
S'0000:00:02.0'
p52
sg16
S'-1'
p53
sg18
S'3rd Gen Core processor Graphics Controller'
p54
sg20
S'0-3'
p55
sg22
g46
sg24
g52
sa(dp56
g3
g4
sg5
S''
sg6
S'41'
p57
sg7
S'/sys/devices/pci0000:00/0000:00:14.0'
p58
sg9
S'xhci_hcd'
p59
sg10
S'USB controller'
p60
sg12
S'00000000,00000000,00000000,00000000,00000000,00000000,00000000,0000000f'
p61
sg14
S'0000:00:14.0'
p62
sg16
S'-1'
p63
sg18
S'7 Series/C210 Series Chipset Family USB xHCI Host Controller'
p64
sg20
S'0-3'
p65
sg22
S'Serial bus controller'
p66
sg24
g62
sa(dp67
g3
g4
sg5
S''
sg6
S'45'
p68
sg7
S'/sys/devices/pci0000:00/0000:00:16.0'
p69
sg9
S'mei'
p70
sg10
S'Communication controller'
p71
sg12
S'00000000,00000000,00000000,00000000,00000000,00000000,00000000,0000000f'
p72
sg14
S'0000:00:16.0'
p73
sg16
S'-1'
p74
sg18
S'7 Series/C210 Series Chipset Family MEI Controller #1'
p75
sg20
S'0-3'
p76
sg22
S'Communication controller'
p77
sg24
g73
sa(dp78
g3
g4
sg5
S''
sg6
S'16'
p79
sg7
S'/sys/devices/pci0000:00/0000:00:1a.0'
p80
sg9
S'ehci-pci'
p81
sg10
g60
sg12
S'00000000,00000000,00000000,00000000,00000000,00000000,00000000,0000000f'
p82
sg14
S'0000:00:1a.0'
p83
sg16
S'-1'
p84
sg18
S'7 Series/C210 Series Chipset Family USB Enhanced Host Controller #2'
p85
sg20
S'0-3'
p86
sg22
g66
sg24
g83
sa(dp87
g3
g4
sg5
S''
sg6
S'47'
p88
sg7
S'/sys/devices/pci0000:00/0000:00:1b.0'
p89
sg9
S'snd_hda_intel'
p90
sg10
S'Audio device'
p91
sg12
S'00000000,00000000,00000000,00000000,00000000,00000000,00000000,0000000f'
p92
sg14
S'0000:00:1b.0'
p93
sg16
S'-1'
p94
sg18
S'7 Series/C210 Series Chipset Family High Definition Audio Controller'
p95
sg20
S'0-3'
p96
sg22
S'Multimedia controller'
p97
sg24
g93
sa(dp98
g3
g4
sg5
S''
sg6
S'16'
p99
sg7
S'/sys/devices/pci0000:00/0000:00:1c.0'
p100
sg9
S'pcieport'
p101
sg10
g29
sg12
S'00000000,00000000,00000000,00000000,00000000,00000000,00000000,0000000f'
p102
sg14
S'0000:00:1c.0'
p103
sg16
S'-1'
p104
sg18
S'7 Series/C210 Series Chipset Family PCI Express Root Port 1'
p105
sg20
S'0-3'
p106
sg22
g23
sg24
g103
sa(dp107
g3
g4
sg5
S''
sg6
S'17'
p108
sg7
S'/sys/devices/pci0000:00/0000:00:1c.1'
p109
sg9
S'pcieport'
p110
sg10
g29
sg12
S'00000000,00000000,00000000,00000000,00000000,00000000,00000000,0000000f'
p111
sg14
S'0000:00:1c.1'
p112
sg16
S'-1'
p113
sg18
S'7 Series/C210 Series Chipset Family PCI Express Root Port 2'
p114
sg20
S'0-3'
p115
sg22
g23
sg24
g112
sa(dp116
g3
S'Realtek Semiconductor Co., Ltd.'
p117
sg5
S''
sg6
S'42'
p118
sg7
S'/sys/devices/pci0000:00/0000:00:1c.1/0000:03:00.0'
p119
sg9
S'r8169'
p120
sg10
S'Ethernet controller'
p121
sg12
S'00000000,00000000,00000000,00000000,00000000,00000000,00000000,0000000f'
p122
sg14
S'0000:03:00.0'
p123
sg16
S'-1'
p124
sg18
S'RTL8101E/RTL8102E PCI Express Fast Ethernet controller'
p125
sg20
S'0-3'
p126
sg22
S'Network controller'
p127
sg24
g123
sa(dp128
g3
g4
sg5
S''
sg6
S'18'
p129
sg7
S'/sys/devices/pci0000:00/0000:00:1c.2'
p130
sg9
S'pcieport'
p131
sg10
g29
sg12
S'00000000,00000000,00000000,00000000,00000000,00000000,00000000,0000000f'
p132
sg14
S'0000:00:1c.2'
p133
sg16
S'-1'
p134
sg18
S'7 Series/C210 Series Chipset Family PCI Express Root Port 3'
p135
sg20
S'0-3'
p136
sg22
g23
sg24
g133
sa(dp137
g3
g4
sg5
S'Centrino Wireless-N 2200 BGN'
p138
sg6
S'46'
p139
sg7
S'/sys/devices/pci0000:00/0000:00:1c.2/0000:04:00.0'
p140
sg9
S'iwlwifi'
p141
sg10
S'Network controller'
p142
sg12
S'00000000,00000000,00000000,00000000,00000000,00000000,00000000,0000000f'
p143
sg14
S'0000:04:00.0'
p144
sg16
S'-1'
p145
sg18
S'Centrino Wireless-N 2200'
p146
sg20
S'0-3'
p147
sg22
g127
sg24
g144
sa(dp148
g3
g4
sg5
S''
sg6
S'23'
p149
sg7
S'/sys/devices/pci0000:00/0000:00:1d.0'
p150
sg9
S'ehci-pci'
p151
sg10
g60
sg12
S'00000000,00000000,00000000,00000000,00000000,00000000,00000000,0000000f'
p152
sg14
S'0000:00:1d.0'
p153
sg16
S'-1'
p154
sg18
S'7 Series/C210 Series Chipset Family USB Enhanced Host Controller #1'
p155
sg20
S'0-3'
p156
sg22
g66
sg24
g153
sa(dp157
g3
g4
sg5
S''
sg6
S'0'
sg7
S'/sys/devices/pci0000:00/0000:00:1f.0'
p158
sg9
S'lpc_ich'
p159
sg10
S'ISA bridge'
p160
sg12
S'00000000,00000000,00000000,00000000,00000000,00000000,00000000,0000000f'
p161
sg14
S'0000:00:1f.0'
p162
sg16
S'-1'
p163
sg18
S'HM76 Express Chipset LPC Controller'
p164
sg20
S'0-3'
p165
sg22
g23
sg24
g162
sa(dp166
g3
g4
sg5
S''
sg6
S'44'
p167
sg7
S'/sys/devices/pci0000:00/0000:00:1f.2'
p168
sg9
S'ahci'
p169
sg10
S'SATA controller'
p170
sg12
S'00000000,00000000,00000000,00000000,00000000,00000000,00000000,0000000f'
p171
sg14
S'0000:00:1f.2'
p172
sg16
S'-1'
p173
sg18
S'7 Series Chipset Family 6-port SATA Controller [AHCI mode]'
p174
sg20
S'0-3'
p175
sg22
S'Mass storage controller'
p176
sg24
g172
sa(dp177
g3
g4
sg5
S''
sg6
S'11'
p178
sg7
S'/sys/devices/pci0000:00/0000:00:1f.3'
p179
sg9
Nsg10
S'SMBus'
p180
sg12
S'00000000,00000000,00000000,00000000,00000000,00000000,00000000,0000000f'
p181
sg14
S'0000:00:1f.3'
p182
sg16
S'-1'
p183
sg18
S'7 Series/C210 Series Chipset Family SMBus Controller'
p184
sg20
S'0-3'
p185
sg22
g66
sg24
g182
sa.