(lp1
(dp2
Vinfo.udi
p3
V/org/freedesktop/Hal/devices/pci_8086_2829
p4
sVinfo.parent
p5
V/org/freedesktop/Hal/devices/computer
p6
sVpci.device_subclass
p7
V6
sVinfo.product
p8
V82801HM/HEM (ICH8M/ICH8M-E) SATA Controller [AHCI mode]
p9
sVpci.device_protocol
p10
V1
sVlinux.subsystem
p11
Vpci
p12
sVpci.device_class
p13
V1
sVaddr
p14
V0000:00:0d.0
p15
sVirq
p16
V21
p17
sVpci.vendor
p18
VIntel Corporation
p19
sVlocal_cpulist
p20
V
sVsubclass
p21
VSATA controller
p22
sVclass
p23
VMass storage controller
p24
sVlinux.sysfs_path
p25
V/sys/devices/pci0000:00/0000:00:0d.0
p26
sVnumanode
p27
V
sVpci.product
p28
V82801HM/HEM (ICH8M/ICH8M-E) SATA Controller [AHCI mode]
p29
sVinfo.subsystem
p30
Vpci
p31
sVvendor
p32
VIntel Corporation
p33
sVlinux.hotplug_type
p34
V2
sVdriver
p35
Vahci
p36
sVpci.vendor_id
p37
V32902
p38
sVpci.linux.sysfs_path
p39
V/sys/devices/pci0000:00/0000:00:0d.0
p40
sVdevice
p41
V82801HM/HEM (ICH8M/ICH8M-E) SATA Controller [AHCI mode]
p42
sVinfo.linux.driver
p43
Vahci
p44
sVpci.product_id
p45
V10281
p46
sVpci.subsys_vendor_id
p47
V0
sVlocalcpus
p48
V1
sVsubdevice
p49
V
sVinfo.vendor
p50
VIntel Corporation
p51
sVsysfspath
p52
V/sys/devices/pci0000:00/0000:00:0d.0
p53
sVpci.subsys_product_id
p54
V0
sVtoolindex
p55
g15
sa(dp56
Vinfo.udi
p57
V/org/freedesktop/Hal/devices/pci_8086_265c
p58
sVinfo.parent
p59
V/org/freedesktop/Hal/devices/computer
p60
sVpci.device_subclass
p61
V3
sVinfo.product
p62
V82801FB/FBM/FR/FW/FRW (ICH6 Family) USB2 EHCI Controller
p63
sVpci.device_protocol
p64
V32
p65
sVlinux.subsystem
p66
Vpci
p67
sVpci.device_class
p68
V12
p69
sVaddr
p70
V0000:00:0b.0
p71
sVirq
p72
V19
p73
sVpci.vendor
p74
VIntel Corporation
p75
sVlocal_cpulist
p76
V
sVsubclass
p77
VUSB controller
p78
sVclass
p79
VSerial bus controller
p80
sVlinux.sysfs_path
p81
V/sys/devices/pci0000:00/0000:00:0b.0
p82
sVnumanode
p83
V
sVpci.product
p84
V82801FB/FBM/FR/FW/FRW (ICH6 Family) USB2 EHCI Controller
p85
sVinfo.subsystem
p86
Vpci
p87
sVvendor
p88
VIntel Corporation
p89
sVlinux.hotplug_type
p90
V2
sVdriver
p91
Vehci_hcd
p92
sVpci.vendor_id
p93
V32902
p94
sVpci.linux.sysfs_path
p95
V/sys/devices/pci0000:00/0000:00:0b.0
p96
sVdevice
p97
V82801FB/FBM/FR/FW/FRW (ICH6 Family) USB2 EHCI Controller
p98
sVinfo.linux.driver
p99
Vehci_hcd
p100
sVpci.product_id
p101
V9820
p102
sVpci.subsys_vendor_id
p103
V0
sVlocalcpus
p104
V1
sVsubdevice
p105
V
sVinfo.vendor
p106
VIntel Corporation
p107
sVsysfspath
p108
V/sys/devices/pci0000:00/0000:00:0b.0
p109
sVpci.subsys_product_id
p110
V0
sVtoolindex
p111
g71
sa(dp112
Vpci.subsys_vendor
p113
VIntel Corporation
p114
sVpci.linux.sysfs_path
p115
V/sys/devices/pci0000:00/0000:00:08.0
p116
sVinfo.parent
p117
V/org/freedesktop/Hal/devices/computer
p118
sVpci.device_subclass
p119
V0
sVinfo.product
p120
V82540EM Gigabit Ethernet Controller
p121
sVpci.device_protocol
p122
V0
sVlinux.subsystem
p123
Vpci
p124
sVpci.device_class
p125
V2
sVaddr
p126
V0000:00:08.0
p127
sVirq
p128
V16
p129
sVpci.vendor
p130
VIntel Corporation
p131
sVlocal_cpulist
p132
V
sVsubclass
p133
VEthernet controller
p134
sVclass
p135
VNetwork controller
p136
sVlinux.sysfs_path
p137
V/sys/devices/pci0000:00/0000:00:08.0
p138
sVnumanode
p139
V
sVpci.product
p140
V82540EM Gigabit Ethernet Controller
p141
sVinfo.subsystem
p142
Vpci
p143
sVvendor
p144
VIntel Corporation
p145
sVlinux.hotplug_type
p146
V2
sVdriver
p147
Ve1000
p148
sVpci.subsys_product
p149
VPRO/1000 MT Desktop Adapter
p150
sVpci.vendor_id
p151
V32902
p152
sVinfo.udi
p153
V/org/freedesktop/Hal/devices/pci_8086_100e_0
p154
sVdevice
p155
V82540EM Gigabit Ethernet Controller
p156
sVinfo.linux.driver
p157
Ve1000
p158
sVpci.product_id
p159
V4110
p160
sVpci.subsys_vendor_id
p161
V32902
p162
sVlocalcpus
p163
V1
sVsubdevice
p164
V
sVinfo.vendor
p165
VIntel Corporation
p166
sVsysfspath
p167
V/sys/devices/pci0000:00/0000:00:08.0
p168
sVpci.subsys_product_id
p169
V30
p170
sVtoolindex
p171
g127
sa(dp172
Vinfo.udi
p173
V/org/freedesktop/Hal/devices/pci_8086_7113
p174
sVinfo.parent
p175
V/org/freedesktop/Hal/devices/computer
p176
sVpci.device_subclass
p177
V128
p178
sVinfo.product
p179
V82371AB/EB/MB PIIX4 ACPI
p180
sVpci.device_protocol
p181
V0
sVlinux.subsystem
p182
Vpci
p183
sVpci.device_class
p184
V6
sVaddr
p185
V0000:00:07.0
p186
sVirq
p187
V9
sVpci.vendor
p188
VIntel Corporation
p189
sVlocal_cpulist
p190
V
sVsubclass
p191
VBridge
p192
sVclass
p193
VBridge
p194
sVlinux.sysfs_path
p195
V/sys/devices/pci0000:00/0000:00:07.0
p196
sVnumanode
p197
V
sVpci.product
p198
V82371AB/EB/MB PIIX4 ACPI
p199
sVinfo.subsystem
p200
Vpci
p201
sVvendor
p202
VIntel Corporation
p203
sVlinux.hotplug_type
p204
V2
sVpci.vendor_id
p205
V32902
p206
sVpci.linux.sysfs_path
p207
V/sys/devices/pci0000:00/0000:00:07.0
p208
sVdevice
p209
V82371AB/EB/MB PIIX4 ACPI
p210
sVpci.product_id
p211
V28947
p212
sVpci.subsys_vendor_id
p213
V0
sVlocalcpus
p214
V1
sVsubdevice
p215
V
sVinfo.vendor
p216
VIntel Corporation
p217
sVsysfspath
p218
V/sys/devices/pci0000:00/0000:00:07.0
p219
sVpci.subsys_product_id
p220
V0
sVtoolindex
p221
g186
sa(dp222
Vinfo.udi
p223
V/org/freedesktop/Hal/devices/pci_106b_3f
p224
sVinfo.parent
p225
V/org/freedesktop/Hal/devices/computer
p226
sVpci.device_subclass
p227
V3
sVinfo.product
p228
VKeyLargo/Intrepid USB
p229
sVpci.device_protocol
p230
V16
p231
sVlinux.subsystem
p232
Vpci
p233
sVpci.device_class
p234
V12
p235
sVaddr
p236
V0000:00:06.0
p237
sVirq
p238
V22
p239
sVpci.vendor
p240
VApple Inc.
p241
sVlocal_cpulist
p242
V
sVsubclass
p243
VUSB controller
p244
sVclass
p245
VSerial bus controller
p246
sVlinux.sysfs_path
p247
V/sys/devices/pci0000:00/0000:00:06.0
p248
sVnumanode
p249
V
sVpci.product
p250
VKeyLargo/Intrepid USB
p251
sVinfo.subsystem
p252
Vpci
p253
sVvendor
p254
VApple Inc.
p255
sVlinux.hotplug_type
p256
V2
sVdriver
p257
Vohci_hcd
p258
sVpci.vendor_id
p259
V4203
p260
sVpci.linux.sysfs_path
p261
V/sys/devices/pci0000:00/0000:00:06.0
p262
sVdevice
p263
VKeyLargo/Intrepid USB
p264
sVinfo.linux.driver
p265
Vohci_hcd
p266
sVpci.product_id
p267
V63
p268
sVpci.subsys_vendor_id
p269
V0
sVlocalcpus
p270
V1
sVsubdevice
p271
V
sVinfo.vendor
p272
VApple Inc.
p273
sVsysfspath
p274
V/sys/devices/pci0000:00/0000:00:06.0
p275
sVpci.subsys_product_id
p276
V0
sVtoolindex
p277
g237
sa(dp278
Vpci.subsys_vendor
p279
VIntel Corporation
p280
sVpci.linux.sysfs_path
p281
V/sys/devices/pci0000:00/0000:00:05.0
p282
sVinfo.parent
p283
V/org/freedesktop/Hal/devices/computer
p284
sVpci.device_subclass
p285
V1
sVinfo.product
p286
V82801AA AC'97 Audio Controller
p287
sVpci.device_protocol
p288
V0
sVlinux.subsystem
p289
Vpci
p290
sVpci.device_class
p291
V4
sVaddr
p292
V0000:00:05.0
p293
sVirq
p294
V21
p295
sVpci.vendor
p296
VIntel Corporation
p297
sVlocal_cpulist
p298
V
sVsubclass
p299
VMultimedia audio controller
p300
sVclass
p301
VMultimedia controller
p302
sVlinux.sysfs_path
p303
V/sys/devices/pci0000:00/0000:00:05.0
p304
sVnumanode
p305
V
sVpci.product
p306
V82801AA AC'97 Audio Controller
p307
sVinfo.subsystem
p308
Vpci
p309
sVvendor
p310
VIntel Corporation
p311
sVlinux.hotplug_type
p312
V2
sVdriver
p313
VIntel ICH
p314
sVpci.vendor_id
p315
V32902
p316
sVinfo.udi
p317
V/org/freedesktop/Hal/devices/pci_8086_2415
p318
sVdevice
p319
V82801AA AC'97 Audio Controller
p320
sVinfo.linux.driver
p321
VIntel ICH
p322
sVpci.product_id
p323
V9237
p324
sVpci.subsys_vendor_id
p325
V32902
p326
sVlocalcpus
p327
V1
sVsubdevice
p328
V
sVinfo.vendor
p329
VIntel Corporation
p330
sVsysfspath
p331
V/sys/devices/pci0000:00/0000:00:05.0
p332
sVpci.subsys_product_id
p333
V0
sVtoolindex
p334
g293
sa(dp335
Vinfo.udi
p336
V/org/freedesktop/Hal/devices/pci_80ee_cafe
p337
sVinfo.parent
p338
V/org/freedesktop/Hal/devices/computer
p339
sVpci.device_subclass
p340
V128
p341
sVinfo.product
p342
VVirtualBox Guest Service
p343
sVpci.device_protocol
p344
V0
sVlinux.subsystem
p345
Vpci
p346
sVpci.device_class
p347
V8
sVaddr
p348
V0000:00:04.0
p349
sVirq
p350
V20
p351
sVpci.vendor
p352
VInnoTek Systemberatung GmbH
p353
sVlocal_cpulist
p354
V
sVsubclass
p355
VSystem peripheral
p356
sVclass
p357
VGeneric system peripheral
p358
sVlinux.sysfs_path
p359
V/sys/devices/pci0000:00/0000:00:04.0
p360
sVnumanode
p361
V
sVpci.product
p362
VVirtualBox Guest Service
p363
sVinfo.subsystem
p364
Vpci
p365
sVvendor
p366
VInnoTek Systemberatung GmbH
p367
sVlinux.hotplug_type
p368
V2
sVdriver
p369
Vvboxguest
p370
sVpci.vendor_id
p371
V33006
p372
sVpci.linux.sysfs_path
p373
V/sys/devices/pci0000:00/0000:00:04.0
p374
sVdevice
p375
VVirtualBox Guest Service
p376
sVinfo.linux.driver
p377
Vvboxguest
p378
sVpci.product_id
p379
V51966
p380
sVpci.subsys_vendor_id
p381
V0
sVlocalcpus
p382
V1
sVsubdevice
p383
V
sVinfo.vendor
p384
VInnoTek Systemberatung GmbH
p385
sVsysfspath
p386
V/sys/devices/pci0000:00/0000:00:04.0
p387
sVpci.subsys_product_id
p388
V0
sVtoolindex
p389
g349
sa(dp390
Vpci.subsys_vendor
p391
VIntel Corporation
p392
sVpci.linux.sysfs_path
p393
V/sys/devices/pci0000:00/0000:00:03.0
p394
sVinfo.parent
p395
V/org/freedesktop/Hal/devices/computer
p396
sVpci.device_subclass
p397
V0
sVinfo.product
p398
V82540EM Gigabit Ethernet Controller
p399
sVpci.device_protocol
p400
V0
sVlinux.subsystem
p401
Vpci
p402
sVpci.device_class
p403
V2
sVaddr
p404
V0000:00:03.0
p405
sVirq
p406
V19
p407
sVpci.vendor
p408
VIntel Corporation
p409
sVlocal_cpulist
p410
V
sVsubclass
p411
VEthernet controller
p412
sVclass
p413
VNetwork controller
p414
sVlinux.sysfs_path
p415
V/sys/devices/pci0000:00/0000:00:03.0
p416
sVnumanode
p417
V
sVpci.product
p418
V82540EM Gigabit Ethernet Controller
p419
sVinfo.subsystem
p420
Vpci
p421
sVvendor
p422
VIntel Corporation
p423
sVlinux.hotplug_type
p424
V2
sVdriver
p425
Ve1000
p426
sVpci.subsys_product
p427
VPRO/1000 MT Desktop Adapter
p428
sVpci.vendor_id
p429
V32902
p430
sVinfo.udi
p431
V/org/freedesktop/Hal/devices/pci_8086_100e
p432
sVdevice
p433
V82540EM Gigabit Ethernet Controller
p434
sVinfo.linux.driver
p435
Ve1000
p436
sVpci.product_id
p437
V4110
p438
sVpci.subsys_vendor_id
p439
V32902
p440
sVlocalcpus
p441
V1
sVsubdevice
p442
V
sVinfo.vendor
p443
VIntel Corporation
p444
sVsysfspath
p445
V/sys/devices/pci0000:00/0000:00:03.0
p446
sVpci.subsys_product_id
p447
V30
p448
sVtoolindex
p449
g405
sa(dp450
Vinfo.udi
p451
V/org/freedesktop/Hal/devices/pci_80ee_beef
p452
sVinfo.parent
p453
V/org/freedesktop/Hal/devices/computer
p454
sVpci.device_subclass
p455
V0
sVinfo.product
p456
VVirtualBox Graphics Adapter
p457
sVpci.device_protocol
p458
V0
sVlinux.subsystem
p459
Vpci
p460
sVpci.device_class
p461
V3
sVaddr
p462
V0000:00:02.0
p463
sVirq
p464
V18
p465
sVpci.vendor
p466
VInnoTek Systemberatung GmbH
p467
sVlocal_cpulist
p468
V
sVsubclass
p469
VVGA compatible controller
p470
sVclass
p471
VDisplay controller
p472
sVlinux.sysfs_path
p473
V/sys/devices/pci0000:00/0000:00:02.0
p474
sVnumanode
p475
V
sVpci.product
p476
VVirtualBox Graphics Adapter
p477
sVinfo.subsystem
p478
Vpci
p479
sVvendor
p480
VInnoTek Systemberatung GmbH
p481
sVlinux.hotplug_type
p482
V2
sVpci.vendor_id
p483
V33006
p484
sVpci.linux.sysfs_path
p485
V/sys/devices/pci0000:00/0000:00:02.0
p486
sVdevice
p487
VVirtualBox Graphics Adapter
p488
sVpci.product_id
p489
V48879
p490
sVpci.subsys_vendor_id
p491
V0
sVlocalcpus
p492
V1
sVsubdevice
p493
V
sVinfo.vendor
p494
VInnoTek Systemberatung GmbH
p495
sVsysfspath
p496
V/sys/devices/pci0000:00/0000:00:02.0
p497
sVpci.subsys_product_id
p498
V0
sVtoolindex
p499
g463
sa(dp500
Vinfo.udi
p501
V/org/freedesktop/Hal/devices/pci_8086_7111
p502
sVinfo.parent
p503
V/org/freedesktop/Hal/devices/computer
p504
sVpci.device_subclass
p505
V1
sVinfo.product
p506
V82371AB/EB/MB PIIX4 IDE
p507
sVpci.device_protocol
p508
V138
p509
sVlinux.subsystem
p510
Vpci
p511
sVpci.device_class
p512
V1
sVaddr
p513
V0000:00:01.1
p514
sVirq
p515
V0
sVpci.vendor
p516
VIntel Corporation
p517
sVlocal_cpulist
p518
V
sVsubclass
p519
VIDE interface
p520
sVclass
p521
VMass storage controller
p522
sVlinux.sysfs_path
p523
V/sys/devices/pci0000:00/0000:00:01.1
p524
sVnumanode
p525
V
sVpci.product
p526
V82371AB/EB/MB PIIX4 IDE
p527
sVinfo.subsystem
p528
Vpci
p529
sVvendor
p530
VIntel Corporation
p531
sVlinux.hotplug_type
p532
V2
sVdriver
p533
Vata_piix
p534
sVpci.vendor_id
p535
V32902
p536
sVpci.linux.sysfs_path
p537
V/sys/devices/pci0000:00/0000:00:01.1
p538
sVdevice
p539
V82371AB/EB/MB PIIX4 IDE
p540
sVinfo.linux.driver
p541
Vata_piix
p542
sVpci.product_id
p543
V28945
p544
sVpci.subsys_vendor_id
p545
V0
sVlocalcpus
p546
V1
sVsubdevice
p547
V
sVinfo.vendor
p548
VIntel Corporation
p549
sVsysfspath
p550
V/sys/devices/pci0000:00/0000:00:01.1
p551
sVpci.subsys_product_id
p552
V0
sVtoolindex
p553
g514
sa(dp554
Vinfo.udi
p555
V/org/freedesktop/Hal/devices/pci_8086_7000
p556
sVinfo.parent
p557
V/org/freedesktop/Hal/devices/computer
p558
sVpci.device_subclass
p559
V1
sVinfo.product
p560
V82371SB PIIX3 ISA [Natoma/Triton II]
p561
sVpci.device_protocol
p562
V0
sVlinux.subsystem
p563
Vpci
p564
sVpci.device_class
p565
V6
sVaddr
p566
V0000:00:01.0
p567
sVirq
p568
V0
sVpci.vendor
p569
VIntel Corporation
p570
sVlocal_cpulist
p571
V
sVsubclass
p572
VISA bridge
p573
sVclass
p574
VBridge
p575
sVlinux.sysfs_path
p576
V/sys/devices/pci0000:00/0000:00:01.0
p577
sVnumanode
p578
V
sVpci.product
p579
V82371SB PIIX3 ISA [Natoma/Triton II]
p580
sVinfo.subsystem
p581
Vpci
p582
sVvendor
p583
VIntel Corporation
p584
sVlinux.hotplug_type
p585
V2
sVpci.vendor_id
p586
V32902
p587
sVpci.linux.sysfs_path
p588
V/sys/devices/pci0000:00/0000:00:01.0
p589
sVdevice
p590
V82371SB PIIX3 ISA [Natoma/Triton II]
p591
sVpci.product_id
p592
V28672
p593
sVpci.subsys_vendor_id
p594
V0
sVlocalcpus
p595
V1
sVsubdevice
p596
V
sVinfo.vendor
p597
VIntel Corporation
p598
sVsysfspath
p599
V/sys/devices/pci0000:00/0000:00:01.0
p600
sVpci.subsys_product_id
p601
V0
sVtoolindex
p602
g567
sa(dp603
Vinfo.udi
p604
V/org/freedesktop/Hal/devices/pci_8086_1237
p605
sVinfo.parent
p606
V/org/freedesktop/Hal/devices/computer
p607
sVpci.device_subclass
p608
V0
sVinfo.product
p609
V440FX - 82441FX PMC [Natoma]
p610
sVpci.device_protocol
p611
V0
sVlinux.subsystem
p612
Vpci
p613
sVpci.device_class
p614
V6
sVaddr
p615
V0000:00:00.0
p616
sVirq
p617
V0
sVpci.vendor
p618
VIntel Corporation
p619
sVlocal_cpulist
p620
V
sVsubclass
p621
VHost bridge
p622
sVclass
p623
VBridge
p624
sVlinux.sysfs_path
p625
V/sys/devices/pci0000:00/0000:00:00.0
p626
sVnumanode
p627
V
sVpci.product
p628
V440FX - 82441FX PMC [Natoma]
p629
sVinfo.subsystem
p630
Vpci
p631
sVvendor
p632
VIntel Corporation
p633
sVlinux.hotplug_type
p634
V2
sVpci.vendor_id
p635
V32902
p636
sVpci.linux.sysfs_path
p637
V/sys/devices/pci0000:00/0000:00:00.0
p638
sVdevice
p639
V440FX - 82441FX PMC [Natoma]
p640
sVpci.product_id
p641
V4663
p642
sVpci.subsys_vendor_id
p643
V0
sVlocalcpus
p644
V1
sVsubdevice
p645
V
sVinfo.vendor
p646
VIntel Corporation
p647
sVsysfspath
p648
V/sys/devices/pci0000:00/0000:00:00.0
p649
sVpci.subsys_product_id
p650
V0
sVtoolindex
p651
g616
sa.