(lp1
(dp2
S'load'
p3
S'0.1 0.11 0.13'
p4
sS'MemoryHugePages_Rsvd'
p5
S'0'
sS'MemoryDirectMap4k'
p6
S'69632 kB'
p7
sS'MemoryActive'
p8
S'2373296 kB'
p9
sS'MemoryDirectMap2M'
p10
S'8226816 kB'
p11
sS'MemoryShmem'
p12
S'423076 kB'
p13
sS'MemorySwapCached'
p14
S'0 kB'
p15
sS'ChassisAssetTag'
p16
S'Asset Tag'
p17
sS'OSThreadCount'
p18
S'0'
sS'ChassisVersion'
p19
S'0.1'
p20
sS'MemoryHugePages_Surp'
p21
S'0'
sS'MemoryInactive'
p22
S'1243324 kB'
p23
sS'SystemFamily'
p24
S'IDEAPAD Z580'
p25
sS'SystemVersion'
p26
S'Lenovo Z580'
p27
sS'MemoryAnonPages'
p28
S'1066596 kB'
p29
sS'MemoryVmallocChunk'
p30
S'34359366460 kB'
p31
sS'distid'
p32
S'precise'
p33
sS'ChassisLock'
p34
S'Not Present'
p35
sS'MemoryPageTables'
p36
S'36588 kB'
p37
sS'SystemManufacturer'
p38
S'LENOVO'
p39
sS'nodename'
p40
S'lumpy-note'
p41
sS'osrelease'
p42
S'3.8.0-30-generic'
p43
sS'machinetype'
p44
S'x86_64'
p45
sS'MemoryWritebackTmp'
p46
S'0 kB'
p47
sS'SystemSKUNumber'
p48
S'System SKUNumber'
p49
sS'MemoryAnonHugePages'
p50
S'0 kB'
p51
sS'MemoryHardwareCorrupted'
p52
S'0 kB'
p53
sS'MemoryCommitLimit'
p54
S'6017756 kB'
p55
sS'toolindex'
p56
S'11000000000000000000000000000001'
p57
sS'MemoryNFS_Unstable'
p58
S'0 kB'
p59
sS'MemoryMemFree'
p60
S'2889184 kB'
p61
sS'ChassisSerialNumber'
p62
S'serial#'
p63
sS'MemoryMlocked'
p64
S'4 kB'
p65
sS'ChassisBoot-UpState'
p66
S'Safe'
p67
sS'OSCoreEnabled'
p68
S'0'
sS'MemorySUnreclaim'
p69
S'42224 kB'
p70
sS'ChassisThermalState'
p71
S'Other'
p72
sS'MemoryMemTotal'
p73
S'8037824 kB'
p74
sS'distver'
p75
S'12.04'
p76
sS'SystemWake-UpType'
p77
S'Power Switch'
p78
sS'MemoryVmallocUsed'
p79
S'369112 kB'
p80
sS'MemoryBounce'
p81
S'0 kB'
p82
sS'ChassisPowerSupplyState'
p83
S'Safe'
p84
sS'MemoryWriteback'
p85
S'0 kB'
p86
sS'ChassisSecurityStatus'
p87
S'Other'
p88
sS'MemoryVmallocTotal'
p89
S'34359738367 kB'
p90
sS'ChassisManufacturer'
p91
S'Intel Corporation'
p92
sS'osname'
p93
S'Linux'
p94
sS'MemoryCached'
p95
S'2260888 kB'
p96
sS'SystemProductName'
p97
S'IdeaPad Z580'
p98
sS'SystemUUID'
p99
S'3F428A0C-BF57-9B28-8DE7-047D7BF2F002'
p100
sS'SystemSerialNumber'
p101
g57
sS'MemoryActive(anon)'
p102
S'1068896 kB'
p103
sS'MemoryUnevictable'
p104
S'4 kB'
p105
sS'ChassisType'
p106
S'Laptop'
p107
sS'MemoryHugePages_Free'
p108
S'0'
sS'OSCoreCount'
p109
S'0'
sS'MemoryActive(file)'
p110
S'1304400 kB'
p111
sS'MemoryKernelStack'
p112
S'4248 kB'
p113
sS'MemorySwapFree'
p114
S'1998844 kB'
p115
sS'osversion'
p116
S'#44~precise1-Ubuntu SMP Fri Aug 23 18:32:41 UTC 2013'
p117
sS'MemoryHugePages_Total'
p118
S'0'
sS'MemoryDirty'
p119
S'344 kB'
p120
sS'MemoryBuffers'
p121
S'289036 kB'
p122
sS'distname'
p123
S'Ubuntu'
p124
sS'MemorySlab'
p125
S'196184 kB'
p126
sS'MemoryInactive(file)'
p127
S'822480 kB'
p128
sS'MemoryInactive(anon)'
p129
S'420844 kB'
p130
sS'OSPhyscpuCount'
p131
S'1'
sS'MemoryCommitted_AS'
p132
S'5069256 kB'
p133
sS'MemoryHugepagesize'
p134
S'2048 kB'
p135
sS'MemorySReclaimable'
p136
S'153960 kB'
p137
sS'MemoryMapped'
p138
S'1398460 kB'
p139
sS'MemorySwapTotal'
p140
S'1998844 kB'
p141
sa.